target datalayout = "e-m:e-p270:32:32-p271:32:32-p272:64:64-i64:64-i128:128-f80:128-n8:16:32:64-S128"
target triple = "x86_64-pc-linux-gnu"

%"class.llvm::StringRef" = type { ptr, i64 }
%"class.llvm::SmallVectorBase" = type { ptr, i32, i32 }
%"struct.llvm::EVT" = type { %"class.llvm::MVT", ptr }
%"class.llvm::MVT" = type { i16 }
%"struct.llvm::Align" = type { i8 }
%"class.llvm::MachineFunction" = type <{ ptr, ptr, ptr, ptr, ptr, ptr, ptr, ptr, ptr, ptr, ptr, ptr, %"class.std::vector.99", i32, [4 x i8], %"class.llvm::BumpPtrAllocatorImpl", %"class.llvm::Recycler", %"class.llvm::ArrayRecycler", %"class.llvm::Recycler.120", %"class.llvm::iplist", i32, %"struct.llvm::Align", i8, i8, i8, %"class.llvm::MachineFunctionProperties", %"class.std::unique_ptr.125", %"class.std::vector.133", %"class.std::vector.138", %"class.std::vector.138", %"class.std::vector.143", %"class.llvm::DenseMap.148", %"class.llvm::DenseMap.151", %"class.llvm::DenseMap.154", %"class.std::vector.157", i8, i8, i8, i8, i8, i8, [2 x i8], i32, i32, %"class.std::vector.162", %"class.std::vector.167", %"class.std::vector.167", i32, [4 x i8], ptr, ptr, %"class.llvm::DenseMap.172", %"class.llvm::SmallVector.175", i32, [4 x i8], %"class.llvm::SmallVector.180", %"class.llvm::DenseMap.185", i8, [7 x i8] }>
%"class.std::vector.99" = type { %"struct.std::_Vector_base.100" }
%"struct.std::_Vector_base.100" = type { %"struct.std::_Vector_base<llvm::MachineBasicBlock *, std::allocator<llvm::MachineBasicBlock *>>::_Vector_impl" }
%"struct.std::_Vector_base<llvm::MachineBasicBlock *, std::allocator<llvm::MachineBasicBlock *>>::_Vector_impl" = type { %"struct.std::_Vector_base<llvm::MachineBasicBlock *, std::allocator<llvm::MachineBasicBlock *>>::_Vector_impl_data" }
%"struct.std::_Vector_base<llvm::MachineBasicBlock *, std::allocator<llvm::MachineBasicBlock *>>::_Vector_impl_data" = type { ptr, ptr, ptr }
%"class.llvm::BumpPtrAllocatorImpl" = type { ptr, ptr, %"class.llvm::SmallVector.105", %"class.llvm::SmallVector.110", i64, i64 }
%"class.llvm::SmallVector.105" = type { %"class.llvm::SmallVectorImpl.106", %"struct.llvm::SmallVectorStorage.109" }
%"class.llvm::SmallVectorImpl.106" = type { %"class.llvm::SmallVectorTemplateBase.107" }
%"class.llvm::SmallVectorTemplateBase.107" = type { %"class.llvm::SmallVectorTemplateCommon.108" }
%"class.llvm::SmallVectorTemplateCommon.108" = type { %"class.llvm::SmallVectorBase" }
%"struct.llvm::SmallVectorStorage.109" = type { [32 x i8] }
%"class.llvm::SmallVector.110" = type { %"class.llvm::SmallVectorImpl.111" }
%"class.llvm::SmallVectorImpl.111" = type { %"class.llvm::SmallVectorTemplateBase.112" }
%"class.llvm::SmallVectorTemplateBase.112" = type { %"class.llvm::SmallVectorTemplateCommon.113" }
%"class.llvm::SmallVectorTemplateCommon.113" = type { %"class.llvm::SmallVectorBase" }
%"class.llvm::Recycler" = type { ptr }
%"class.llvm::ArrayRecycler" = type { %"class.llvm::SmallVector.115" }
%"class.llvm::SmallVector.115" = type { %"class.llvm::SmallVectorImpl.116", %"struct.llvm::SmallVectorStorage.119" }
%"class.llvm::SmallVectorImpl.116" = type { %"class.llvm::SmallVectorTemplateBase.117" }
%"class.llvm::SmallVectorTemplateBase.117" = type { %"class.llvm::SmallVectorTemplateCommon.118" }
%"class.llvm::SmallVectorTemplateCommon.118" = type { %"class.llvm::SmallVectorBase" }
%"struct.llvm::SmallVectorStorage.119" = type { [64 x i8] }
%"class.llvm::Recycler.120" = type { ptr }
%"class.llvm::iplist" = type { %"class.llvm::iplist_impl" }
%"class.llvm::iplist_impl" = type { %"class.llvm::simple_ilist" }
%"class.llvm::simple_ilist" = type { %"class.llvm::ilist_sentinel" }
%"class.llvm::ilist_sentinel" = type { %"class.llvm::ilist_node_impl.121" }
%"class.llvm::ilist_node_impl.121" = type { %"class.llvm::ilist_node_base.122" }
%"class.llvm::ilist_node_base.122" = type { %"class.llvm::ilist_detail::node_base_prevnext.123" }
%"class.llvm::ilist_detail::node_base_prevnext.123" = type { ptr, ptr }
%"class.llvm::MachineFunctionProperties" = type { %"class.std::bitset" }
%"class.std::bitset" = type { %"struct.std::_Base_bitset" }
%"struct.std::_Base_bitset" = type { i64 }
%"class.std::unique_ptr.125" = type { %"struct.std::__uniq_ptr_data.126" }
%"struct.std::__uniq_ptr_data.126" = type { %"class.std::__uniq_ptr_impl.127" }
%"class.std::__uniq_ptr_impl.127" = type { %"class.std::tuple.128" }
%"class.std::tuple.128" = type { %"struct.std::_Tuple_impl.129" }
%"struct.std::_Tuple_impl.129" = type { %"struct.std::_Head_base.132" }
%"struct.std::_Head_base.132" = type { ptr }
%"class.std::vector.133" = type { %"struct.std::_Vector_base.134" }
%"struct.std::_Vector_base.134" = type { %"struct.std::_Vector_base<llvm::MCCFIInstruction, std::allocator<llvm::MCCFIInstruction>>::_Vector_impl" }
%"struct.std::_Vector_base<llvm::MCCFIInstruction, std::allocator<llvm::MCCFIInstruction>>::_Vector_impl" = type { %"struct.std::_Vector_base<llvm::MCCFIInstruction, std::allocator<llvm::MCCFIInstruction>>::_Vector_impl_data" }
%"struct.std::_Vector_base<llvm::MCCFIInstruction, std::allocator<llvm::MCCFIInstruction>>::_Vector_impl_data" = type { ptr, ptr, ptr }
%"class.std::vector.138" = type { %"struct.std::_Vector_base.139" }
%"struct.std::_Vector_base.139" = type { %"struct.std::_Vector_base<llvm::MCSymbol *, std::allocator<llvm::MCSymbol *>>::_Vector_impl" }
%"struct.std::_Vector_base<llvm::MCSymbol *, std::allocator<llvm::MCSymbol *>>::_Vector_impl" = type { %"struct.std::_Vector_base<llvm::MCSymbol *, std::allocator<llvm::MCSymbol *>>::_Vector_impl_data" }
%"struct.std::_Vector_base<llvm::MCSymbol *, std::allocator<llvm::MCSymbol *>>::_Vector_impl_data" = type { ptr, ptr, ptr }
%"class.std::vector.143" = type { %"struct.std::_Vector_base.144" }
%"struct.std::_Vector_base.144" = type { %"struct.std::_Vector_base<llvm::LandingPadInfo, std::allocator<llvm::LandingPadInfo>>::_Vector_impl" }
%"struct.std::_Vector_base<llvm::LandingPadInfo, std::allocator<llvm::LandingPadInfo>>::_Vector_impl" = type { %"struct.std::_Vector_base<llvm::LandingPadInfo, std::allocator<llvm::LandingPadInfo>>::_Vector_impl_data" }
%"struct.std::_Vector_base<llvm::LandingPadInfo, std::allocator<llvm::LandingPadInfo>>::_Vector_impl_data" = type { ptr, ptr, ptr }
%"class.llvm::DenseMap.148" = type <{ ptr, i32, i32, i32, [4 x i8] }>
%"class.llvm::DenseMap.151" = type <{ ptr, i32, i32, i32, [4 x i8] }>
%"class.llvm::DenseMap.154" = type <{ ptr, i32, i32, i32, [4 x i8] }>
%"class.std::vector.157" = type { %"struct.std::_Vector_base.158" }
%"struct.std::_Vector_base.158" = type { %"struct.std::_Vector_base<std::pair<llvm::MCSymbol *, llvm::MDNode *>, std::allocator<std::pair<llvm::MCSymbol *, llvm::MDNode *>>>::_Vector_impl" }
%"struct.std::_Vector_base<std::pair<llvm::MCSymbol *, llvm::MDNode *>, std::allocator<std::pair<llvm::MCSymbol *, llvm::MDNode *>>>::_Vector_impl" = type { %"struct.std::_Vector_base<std::pair<llvm::MCSymbol *, llvm::MDNode *>, std::allocator<std::pair<llvm::MCSymbol *, llvm::MDNode *>>>::_Vector_impl_data" }
%"struct.std::_Vector_base<std::pair<llvm::MCSymbol *, llvm::MDNode *>, std::allocator<std::pair<llvm::MCSymbol *, llvm::MDNode *>>>::_Vector_impl_data" = type { ptr, ptr, ptr }
%"class.std::vector.162" = type { %"struct.std::_Vector_base.163" }
%"struct.std::_Vector_base.163" = type { %"struct.std::_Vector_base<const llvm::GlobalValue *, std::allocator<const llvm::GlobalValue *>>::_Vector_impl" }
%"struct.std::_Vector_base<const llvm::GlobalValue *, std::allocator<const llvm::GlobalValue *>>::_Vector_impl" = type { %"struct.std::_Vector_base<const llvm::GlobalValue *, std::allocator<const llvm::GlobalValue *>>::_Vector_impl_data" }
%"struct.std::_Vector_base<const llvm::GlobalValue *, std::allocator<const llvm::GlobalValue *>>::_Vector_impl_data" = type { ptr, ptr, ptr }
%"class.std::vector.167" = type { %"struct.std::_Vector_base.168" }
%"struct.std::_Vector_base.168" = type { %"struct.std::_Vector_base<unsigned int, std::allocator<unsigned int>>::_Vector_impl" }
%"struct.std::_Vector_base<unsigned int, std::allocator<unsigned int>>::_Vector_impl" = type { %"struct.std::_Vector_base<unsigned int, std::allocator<unsigned int>>::_Vector_impl_data" }
%"struct.std::_Vector_base<unsigned int, std::allocator<unsigned int>>::_Vector_impl_data" = type { ptr, ptr, ptr }
%"class.llvm::DenseMap.172" = type <{ ptr, i32, i32, i32, [4 x i8] }>
%"class.llvm::SmallVector.175" = type { %"class.llvm::SmallVectorImpl.176", %"struct.llvm::SmallVectorStorage.179" }
%"class.llvm::SmallVectorImpl.176" = type { %"class.llvm::SmallVectorTemplateBase.177" }
%"class.llvm::SmallVectorTemplateBase.177" = type { %"class.llvm::SmallVectorTemplateCommon.178" }
%"class.llvm::SmallVectorTemplateCommon.178" = type { %"class.llvm::SmallVectorBase" }
%"struct.llvm::SmallVectorStorage.179" = type { [128 x i8] }
%"class.llvm::SmallVector.180" = type { %"class.llvm::SmallVectorImpl.181", %"struct.llvm::SmallVectorStorage.184" }
%"class.llvm::SmallVectorImpl.181" = type { %"class.llvm::SmallVectorTemplateBase.182" }
%"class.llvm::SmallVectorTemplateBase.182" = type { %"class.llvm::SmallVectorTemplateCommon.183" }
%"class.llvm::SmallVectorTemplateCommon.183" = type { %"class.llvm::SmallVectorBase" }
%"struct.llvm::SmallVectorStorage.184" = type { [160 x i8] }
%"class.llvm::DenseMap.185" = type <{ ptr, i32, i32, i32, [4 x i8] }>
%"class.llvm::Attribute" = type { ptr }

@.str.49 = private unnamed_addr constant [21 x i8] c"reciprocal-estimates\00", align 1

; Function Attrs: mustprogress nounwind uwtable
define linkonce_odr hidden noundef i64 @_ZNSt11char_traitsIcE6lengthEPKc(ptr noundef %0) #1 comdat align 2 {
  %2 = alloca ptr, align 8
  store ptr %0, ptr %2, align 8
  %3 = load ptr, ptr %2, align 8
  %4 = call i64 @strlen(ptr noundef %3) #2
  ret i64 %4
}

; Function Attrs: mustprogress nounwind uwtable
define linkonce_odr hidden void @_ZN4llvm9StringRefC2EPKc(ptr noundef nonnull align 8 dereferenceable(16) %0, ptr noundef %1) unnamed_addr #1 comdat align 2 {
  %3 = alloca ptr, align 8
  %4 = alloca ptr, align 8
  store ptr %0, ptr %3, align 8
  store ptr %1, ptr %4, align 8
  %5 = load ptr, ptr %3, align 8
  %6 = getelementptr inbounds nuw %"class.llvm::StringRef", ptr %5, i32 0, i32 0
  %7 = load ptr, ptr %4, align 8
  store ptr %7, ptr %6, align 8
  %8 = getelementptr inbounds nuw %"class.llvm::StringRef", ptr %5, i32 0, i32 1
  %9 = load ptr, ptr %4, align 8
  %10 = icmp ne ptr %9, null
  br i1 %10, label %11, label %14

11:                                               ; preds = %2
  %12 = load ptr, ptr %4, align 8
  %13 = call noundef i64 @_ZNSt11char_traitsIcE6lengthEPKc(ptr noundef %12)
  br label %15

14:                                               ; preds = %2
  br label %15

15:                                               ; preds = %14, %11
  %16 = phi i64 [ %13, %11 ], [ 0, %14 ]
  store i64 %16, ptr %8, align 8
  ret void
}

; Function Attrs: mustprogress nounwind uwtable
define linkonce_odr hidden noundef nonnull align 8 dereferenceable(136) ptr @_ZN4llvm15MachineFunction11getFunctionEv(ptr noundef nonnull align 8 dereferenceable(1041) %0) #1 comdat align 2 {
  %2 = alloca ptr, align 8
  store ptr %0, ptr %2, align 8
  %3 = load ptr, ptr %2, align 8
  %4 = getelementptr inbounds nuw %"class.llvm::MachineFunction", ptr %3, i32 0, i32 0
  %5 = load ptr, ptr %4, align 8
  ret ptr %5
}

; Function Attrs: mustprogress nounwind uwtable
define internal { ptr, i64 } @_ZL23getRecipEstimateForFuncRN4llvm15MachineFunctionE(ptr noundef nonnull align 8 dereferenceable(1041) %0) #1 {
  %2 = alloca %"class.llvm::StringRef", align 8
  %3 = alloca ptr, align 8
  %4 = alloca ptr, align 8
  %5 = alloca %"class.llvm::Attribute", align 8
  %6 = alloca %"class.llvm::StringRef", align 8
  store ptr %0, ptr %3, align 8
  %7 = load ptr, ptr %3, align 8
  %8 = call noundef nonnull align 8 dereferenceable(136) ptr @_ZN4llvm15MachineFunction11getFunctionEv(ptr noundef nonnull align 8 dereferenceable(1041) %7)
  store ptr %8, ptr %4, align 8
  %9 = load ptr, ptr %4, align 8
  call void @_ZN4llvm9StringRefC2EPKc(ptr noundef nonnull align 8 dereferenceable(16) %6, ptr noundef @.str.49)
  %10 = getelementptr inbounds nuw { ptr, i64 }, ptr %6, i32 0, i32 0
  %11 = load ptr, ptr %10, align 8
  %12 = getelementptr inbounds nuw { ptr, i64 }, ptr %6, i32 0, i32 1
  %13 = load i64, ptr %12, align 8
  %14 = call ptr @_ZNK4llvm8Function14getFnAttributeENS_9StringRefE(ptr noundef nonnull align 8 dereferenceable(136) %9, ptr %11, i64 %13)
  %15 = getelementptr inbounds nuw %"class.llvm::Attribute", ptr %5, i32 0, i32 0
  store ptr %14, ptr %15, align 8
  %16 = call { ptr, i64 } @_ZNK4llvm9Attribute16getValueAsStringEv(ptr noundef nonnull align 8 dereferenceable(8) %5)
  %17 = getelementptr inbounds nuw { ptr, i64 }, ptr %2, i32 0, i32 0
  %18 = extractvalue { ptr, i64 } %16, 0
  store ptr %18, ptr %17, align 8
  %19 = getelementptr inbounds nuw { ptr, i64 }, ptr %2, i32 0, i32 1
  %20 = extractvalue { ptr, i64 } %16, 1
  store i64 %20, ptr %19, align 8
  %21 = load { ptr, i64 }, ptr %2, align 8
  ret { ptr, i64 } %21
}

; Function Attrs: mustprogress nounwind uwtable
define dso_local noundef i32 @_ZNK4llvm18TargetLoweringBase22getSqrtRefinementStepsENS_3EVTERNS_15MachineFunctionE(ptr noundef nonnull align 8 dereferenceable(408123) %0, i16 %1, ptr %2, ptr noundef nonnull align 8 dereferenceable(1041) %3) #1 align 2 {
  %5 = alloca %"struct.llvm::EVT", align 8
  %6 = alloca ptr, align 8
  %7 = alloca ptr, align 8
  %8 = alloca %"struct.llvm::EVT", align 8
  %9 = alloca %"class.llvm::StringRef", align 8
  %10 = getelementptr inbounds nuw { i16, ptr }, ptr %5, i32 0, i32 0
  store i16 %1, ptr %10, align 8
  %11 = getelementptr inbounds nuw { i16, ptr }, ptr %5, i32 0, i32 1
  store ptr %2, ptr %11, align 8
  store ptr %0, ptr %6, align 8
  store ptr %3, ptr %7, align 8
  call void @llvm.memcpy.p0.p0.i64(ptr align 8 %8, ptr align 8 %5, i64 16, i1 false)
  %12 = load ptr, ptr %7, align 8
  %13 = call { ptr, i64 } @_ZL23getRecipEstimateForFuncRN4llvm15MachineFunctionE(ptr noundef nonnull align 8 dereferenceable(1041) %12)
  %14 = getelementptr inbounds nuw { ptr, i64 }, ptr %9, i32 0, i32 0
  %15 = extractvalue { ptr, i64 } %13, 0
  store ptr %15, ptr %14, align 8
  %16 = getelementptr inbounds nuw { ptr, i64 }, ptr %9, i32 0, i32 1
  %17 = extractvalue { ptr, i64 } %13, 1
  store i64 %17, ptr %16, align 8
  %18 = getelementptr inbounds nuw { i16, ptr }, ptr %8, i32 0, i32 0
  %19 = load i16, ptr %18, align 8
  %20 = getelementptr inbounds nuw { i16, ptr }, ptr %8, i32 0, i32 1
  %21 = load ptr, ptr %20, align 8
  %22 = getelementptr inbounds nuw { ptr, i64 }, ptr %9, i32 0, i32 0
  %23 = load ptr, ptr %22, align 8
  %24 = getelementptr inbounds nuw { ptr, i64 }, ptr %9, i32 0, i32 1
  %25 = load i64, ptr %24, align 8
  %26 = call noundef i32 @_ZL20getOpRefinementStepsbN4llvm3EVTENS_9StringRefE(i1 noundef zeroext true, i16 %19, ptr %21, ptr %23, i64 %25)
  ret i32 %26
}