; Function Attrs: mustprogress nounwind uwtable
define dso_local noundef range(i32 -1, 256) i32 @_ZNK4llvm18TargetLoweringBase22getSqrtRefinementStepsENS_3EVTERNS_15MachineFunctionE(ptr nocapture noundef nonnull readnone align 8 dereferenceable(408123) %0, i16 %1, ptr %2, ptr nocapture noundef nonnull readonly align 8 dereferenceable(1041) %3) local_unnamed_addr #0 align 2 {
  %5 = alloca %"class.llvm::Attribute", align 8
  %.val = load ptr, ptr %3, align 8
  call void @llvm.lifetime.start.p0(i64 8, ptr nonnull %5)
  %6 = tail call ptr @_ZNK4llvm8Function14getFnAttributeENS_9StringRefE(ptr noundef nonnull align 8 dereferenceable(136) %.val, ptr nonnull @.str.49, i64 20) #26
  store ptr %6, ptr %5, align 8
  %7 = call { ptr, i64 } @_ZNK4llvm9Attribute16getValueAsStringEv(ptr noundef nonnull align 8 dereferenceable(8) %5) #26
  call void @llvm.lifetime.end.p0(i64 8, ptr nonnull %5)
  %8 = extractvalue { ptr, i64 } %7, 0
  %9 = extractvalue { ptr, i64 } %7, 1
  %10 = call fastcc noundef i32 @_ZL20getOpRefinementStepsbN4llvm3EVTENS_9StringRefE(i1 noundef zeroext true, i16 %1, ptr %2, ptr %8, i64 %9)
  ret i32 %10
}